target datalayout = "e-m:e-p270:32:32-p271:32:32-p272:64:64-i64:64-i128:128-f80:128-n8:16:32:64-S128"
target triple = "x86_64-pc-linux-gnu"

@.str.28 = private unnamed_addr constant [2 x i8] c"\0A\00", align 1
@.str.75 = private unnamed_addr constant [22 x i8] c" Number steps: %5ld\0A\0A\00", align 1
@.str.76 = private unnamed_addr constant [24 x i8] c" Function evaluations:\0A\00", align 1
@.str.78 = private unnamed_addr constant [23 x i8] c" Error test failures:\0A\00", align 1
@.str.80 = private unnamed_addr constant [24 x i8] c" Linear solver setups:\0A\00", align 1
@.str.82 = private unnamed_addr constant [24 x i8] c" Nonlinear iterations:\0A\00", align 1
@.str.83 = private unnamed_addr constant [18 x i8] c"  nni:      %5ld\0A\00", align 1
@.str.84 = private unnamed_addr constant [24 x i8] c" Convergence failures:\0A\00", align 1
@.str.85 = private unnamed_addr constant [18 x i8] c"  ncfn:     %5ld\0A\00", align 1
@.str.86 = private unnamed_addr constant [35 x i8] c"  f:        %5ld\0A  fQ:       %5ld\0A\00", align 1
@.str.87 = private unnamed_addr constant [35 x i8] c"  netf:     %5ld\0A  netfQ:    %5ld\0A\00", align 1
@.str.88 = private unnamed_addr constant [18 x i8] c"  nsetups:  %5ld\0A\00", align 1

; Function Attrs: nounwind uwtable
define dso_local i32 @PrintBckStats(ptr noundef %0, i32 noundef %1) #0 {
  %3 = alloca ptr, align 8
  %4 = alloca i32, align 4
  %5 = alloca ptr, align 8
  %6 = alloca i64, align 8
  %7 = alloca i64, align 8
  %8 = alloca i64, align 8
  %9 = alloca i64, align 8
  %10 = alloca i64, align 8
  %11 = alloca i64, align 8
  %12 = alloca i64, align 8
  %13 = alloca i64, align 8
  %14 = alloca i32, align 4
  %15 = alloca i32, align 4
  %16 = alloca double, align 8
  %17 = alloca double, align 8
  %18 = alloca double, align 8
  %19 = alloca double, align 8
  %20 = alloca i32, align 4
  store ptr %0, ptr %3, align 8, !tbaa !11
  store i32 %1, ptr %4, align 4, !tbaa !4
  call void @llvm.lifetime.start.p0(i64 8, ptr %5) #6
  call void @llvm.lifetime.start.p0(i64 8, ptr %6) #6
  call void @llvm.lifetime.start.p0(i64 8, ptr %7) #6
  call void @llvm.lifetime.start.p0(i64 8, ptr %8) #6
  call void @llvm.lifetime.start.p0(i64 8, ptr %9) #6
  call void @llvm.lifetime.start.p0(i64 8, ptr %10) #6
  call void @llvm.lifetime.start.p0(i64 8, ptr %11) #6
  call void @llvm.lifetime.start.p0(i64 8, ptr %12) #6
  call void @llvm.lifetime.start.p0(i64 8, ptr %13) #6
  call void @llvm.lifetime.start.p0(i64 4, ptr %14) #6
  call void @llvm.lifetime.start.p0(i64 4, ptr %15) #6
  call void @llvm.lifetime.start.p0(i64 8, ptr %16) #6
  call void @llvm.lifetime.start.p0(i64 8, ptr %17) #6
  call void @llvm.lifetime.start.p0(i64 8, ptr %18) #6
  call void @llvm.lifetime.start.p0(i64 8, ptr %19) #6
  call void @llvm.lifetime.start.p0(i64 4, ptr %20) #6
  %21 = load ptr, ptr %3, align 8, !tbaa !11
  %22 = load i32, ptr %4, align 4, !tbaa !4
  %23 = call ptr @CVodeGetAdjCVodeBmem(ptr noundef %21, i32 noundef %22)
  store ptr %23, ptr %5, align 8, !tbaa !11
  %24 = load ptr, ptr %5, align 8, !tbaa !11
  %25 = call i32 @CVodeGetIntegratorStats(ptr noundef %24, ptr noundef %6, ptr noundef %7, ptr noundef %8, ptr noundef %11, ptr noundef %14, ptr noundef %15, ptr noundef %16, ptr noundef %17, ptr noundef %18, ptr noundef %19)
  store i32 %25, ptr %20, align 4, !tbaa !4
  %26 = load ptr, ptr %5, align 8, !tbaa !11
  %27 = call i32 @CVodeGetNonlinSolvStats(ptr noundef %26, ptr noundef %9, ptr noundef %10)
  store i32 %27, ptr %20, align 4, !tbaa !4
  %28 = load ptr, ptr %5, align 8, !tbaa !11
  %29 = call i32 @CVodeGetQuadStats(ptr noundef %28, ptr noundef %12, ptr noundef %13)
  store i32 %29, ptr %20, align 4, !tbaa !4
  %30 = load i64, ptr %6, align 8, !tbaa !22
  %31 = call i32 (ptr, ...) @printf(ptr noundef @.str.75, i64 noundef %30)
  %32 = call i32 (ptr, ...) @printf(ptr noundef @.str.76)
  %33 = load i64, ptr %7, align 8, !tbaa !22
  %34 = load i64, ptr %12, align 8, !tbaa !22
  %35 = call i32 (ptr, ...) @printf(ptr noundef @.str.86, i64 noundef %33, i64 noundef %34)
  %36 = call i32 (ptr, ...) @printf(ptr noundef @.str.78)
  %37 = load i64, ptr %11, align 8, !tbaa !22
  %38 = load i64, ptr %13, align 8, !tbaa !22
  %39 = call i32 (ptr, ...) @printf(ptr noundef @.str.87, i64 noundef %37, i64 noundef %38)
  %40 = call i32 (ptr, ...) @printf(ptr noundef @.str.80)
  %41 = load i64, ptr %8, align 8, !tbaa !22
  %42 = call i32 (ptr, ...) @printf(ptr noundef @.str.88, i64 noundef %41)
  %43 = call i32 (ptr, ...) @printf(ptr noundef @.str.82)
  %44 = load i64, ptr %9, align 8, !tbaa !22
  %45 = call i32 (ptr, ...) @printf(ptr noundef @.str.83, i64 noundef %44)
  %46 = call i32 (ptr, ...) @printf(ptr noundef @.str.84)
  %47 = load i64, ptr %10, align 8, !tbaa !22
  %48 = call i32 (ptr, ...) @printf(ptr noundef @.str.85, i64 noundef %47)
  %49 = call i32 (ptr, ...) @printf(ptr noundef @.str.28)
  %50 = load i32, ptr %20, align 4, !tbaa !4
  call void @llvm.lifetime.end.p0(i64 4, ptr %20) #6
  call void @llvm.lifetime.end.p0(i64 8, ptr %19) #6
  call void @llvm.lifetime.end.p0(i64 8, ptr %18) #6
  call void @llvm.lifetime.end.p0(i64 8, ptr %17) #6
  call void @llvm.lifetime.end.p0(i64 8, ptr %16) #6
  call void @llvm.lifetime.end.p0(i64 4, ptr %15) #6
  call void @llvm.lifetime.end.p0(i64 4, ptr %14) #6
  call void @llvm.lifetime.end.p0(i64 8, ptr %13) #6
  call void @llvm.lifetime.end.p0(i64 8, ptr %12) #6
  call void @llvm.lifetime.end.p0(i64 8, ptr %11) #6
  call void @llvm.lifetime.end.p0(i64 8, ptr %10) #6
  call void @llvm.lifetime.end.p0(i64 8, ptr %9) #6
  call void @llvm.lifetime.end.p0(i64 8, ptr %8) #6
  call void @llvm.lifetime.end.p0(i64 8, ptr %7) #6
  call void @llvm.lifetime.end.p0(i64 8, ptr %6) #6
  call void @llvm.lifetime.end.p0(i64 8, ptr %5) #6
  ret i32 %50
}