; Function Attrs: nounwind uwtable
define dso_local i32 @PrintBckStats(ptr noundef %0, i32 noundef %1) local_unnamed_addr #0 {
  %3 = alloca i64, align 8
  %4 = alloca i64, align 8
  %5 = alloca i64, align 8
  %6 = alloca i64, align 8
  %7 = alloca i64, align 8
  %8 = alloca i64, align 8
  %9 = alloca i64, align 8
  %10 = alloca i64, align 8
  %11 = alloca i32, align 4
  %12 = alloca i32, align 4
  %13 = alloca double, align 8
  %14 = alloca double, align 8
  %15 = alloca double, align 8
  %16 = alloca double, align 8
  call void @llvm.lifetime.start.p0(i64 8, ptr nonnull %3) #9
  call void @llvm.lifetime.start.p0(i64 8, ptr nonnull %4) #9
  call void @llvm.lifetime.start.p0(i64 8, ptr nonnull %5) #9
  call void @llvm.lifetime.start.p0(i64 8, ptr nonnull %6) #9
  call void @llvm.lifetime.start.p0(i64 8, ptr nonnull %7) #9
  call void @llvm.lifetime.start.p0(i64 8, ptr nonnull %8) #9
  call void @llvm.lifetime.start.p0(i64 8, ptr nonnull %9) #9
  call void @llvm.lifetime.start.p0(i64 8, ptr nonnull %10) #9
  call void @llvm.lifetime.start.p0(i64 4, ptr nonnull %11) #9
  call void @llvm.lifetime.start.p0(i64 4, ptr nonnull %12) #9
  call void @llvm.lifetime.start.p0(i64 8, ptr nonnull %13) #9
  call void @llvm.lifetime.start.p0(i64 8, ptr nonnull %14) #9
  call void @llvm.lifetime.start.p0(i64 8, ptr nonnull %15) #9
  call void @llvm.lifetime.start.p0(i64 8, ptr nonnull %16) #9
  %17 = tail call ptr @CVodeGetAdjCVodeBmem(ptr noundef %0, i32 noundef %1) #9
  %18 = call i32 @CVodeGetIntegratorStats(ptr noundef %17, ptr noundef nonnull %3, ptr noundef nonnull %4, ptr noundef nonnull %5, ptr noundef nonnull %8, ptr noundef nonnull %11, ptr noundef nonnull %12, ptr noundef nonnull %13, ptr noundef nonnull %14, ptr noundef nonnull %15, ptr noundef nonnull %16) #9
  %19 = call i32 @CVodeGetNonlinSolvStats(ptr noundef %17, ptr noundef nonnull %6, ptr noundef nonnull %7) #9
  %20 = call i32 @CVodeGetQuadStats(ptr noundef %17, ptr noundef nonnull %9, ptr noundef nonnull %10) #9
  %21 = load i64, ptr %3, align 8, !tbaa !28
  %22 = call i32 (ptr, ...) @printf(ptr noundef nonnull dereferenceable(1) @.str.75, i64 noundef %21)
  %puts = call i32 @puts(ptr nonnull dereferenceable(1) @str.22)
  %23 = load i64, ptr %4, align 8, !tbaa !28
  %24 = load i64, ptr %9, align 8, !tbaa !28
  %25 = call i32 (ptr, ...) @printf(ptr noundef nonnull dereferenceable(1) @.str.86, i64 noundef %23, i64 noundef %24)
  %puts5 = call i32 @puts(ptr nonnull dereferenceable(1) @str.23)
  %26 = load i64, ptr %8, align 8, !tbaa !28
  %27 = load i64, ptr %10, align 8, !tbaa !28
  %28 = call i32 (ptr, ...) @printf(ptr noundef nonnull dereferenceable(1) @.str.87, i64 noundef %26, i64 noundef %27)
  %puts6 = call i32 @puts(ptr nonnull dereferenceable(1) @str.24)
  %29 = load i64, ptr %5, align 8, !tbaa !28
  %30 = call i32 (ptr, ...) @printf(ptr noundef nonnull dereferenceable(1) @.str.88, i64 noundef %29)
  %puts7 = call i32 @puts(ptr nonnull dereferenceable(1) @str.25)
  %31 = load i64, ptr %6, align 8, !tbaa !28
  %32 = call i32 (ptr, ...) @printf(ptr noundef nonnull dereferenceable(1) @.str.83, i64 noundef %31)
  %puts8 = call i32 @puts(ptr nonnull dereferenceable(1) @str.26)
  %33 = load i64, ptr %7, align 8, !tbaa !28
  %34 = call i32 (ptr, ...) @printf(ptr noundef nonnull dereferenceable(1) @.str.85, i64 noundef %33)
  %putchar = call i32 @putchar(i32 10)
  call void @llvm.lifetime.end.p0(i64 8, ptr nonnull %16) #9
  call void @llvm.lifetime.end.p0(i64 8, ptr nonnull %15) #9
  call void @llvm.lifetime.end.p0(i64 8, ptr nonnull %14) #9
  call void @llvm.lifetime.end.p0(i64 8, ptr nonnull %13) #9
  call void @llvm.lifetime.end.p0(i64 4, ptr nonnull %12) #9
  call void @llvm.lifetime.end.p0(i64 4, ptr nonnull %11) #9
  call void @llvm.lifetime.end.p0(i64 8, ptr nonnull %10) #9
  call void @llvm.lifetime.end.p0(i64 8, ptr nonnull %9) #9
  call void @llvm.lifetime.end.p0(i64 8, ptr nonnull %8) #9
  call void @llvm.lifetime.end.p0(i64 8, ptr nonnull %7) #9
  call void @llvm.lifetime.end.p0(i64 8, ptr nonnull %6) #9
  call void @llvm.lifetime.end.p0(i64 8, ptr nonnull %5) #9
  call void @llvm.lifetime.end.p0(i64 8, ptr nonnull %4) #9
  call void @llvm.lifetime.end.p0(i64 8, ptr nonnull %3) #9
  ret i32 %20
}